target datalayout = "e-m:e-p270:32:32-p271:32:32-p272:64:64-i64:64-i128:128-f80:128-n8:16:32:64-S128"
target triple = "x86_64-pc-linux-gnu"

%struct.CPpmd7 = type { ptr, ptr, ptr, i32, i32, i32, i32, i32, i32, i32, i32, i32, ptr, ptr, ptr, ptr, ptr, i32, [38 x i8], [128 x i8], [38 x i32], [256 x i8], [256 x i8], [256 x i8], %struct.CPpmd_See, [25 x [16 x %struct.CPpmd_See]], [128 x [64 x i16]] }
%struct.CPpmd_See = type { i16, i8, i8 }

; Function Attrs: nounwind uwtable
define internal void @Ppmd7_Construct(ptr noundef %0) #0 {
  %2 = alloca ptr, align 8
  %3 = alloca i32, align 4
  %4 = alloca i32, align 4
  %5 = alloca i32, align 4
  %6 = alloca i32, align 4
  store ptr %0, ptr %2, align 8, !tbaa !4
  call void @llvm.lifetime.start.p0(i64 4, ptr %3) #6
  call void @llvm.lifetime.start.p0(i64 4, ptr %4) #6
  call void @llvm.lifetime.start.p0(i64 4, ptr %5) #6
  %7 = load ptr, ptr %2, align 8, !tbaa !4
  %8 = getelementptr inbounds nuw %struct.CPpmd7, ptr %7, i32 0, i32 12
  store ptr null, ptr %8, align 8, !tbaa !8
  store i32 0, ptr %3, align 4, !tbaa !15
  store i32 0, ptr %4, align 4, !tbaa !15
  br label %9

9:                                                ; preds = %43, %1
  %10 = load i32, ptr %3, align 4, !tbaa !15
  %11 = icmp ult i32 %10, 38
  br i1 %11, label %12, label %46

12:                                               ; preds = %9
  call void @llvm.lifetime.start.p0(i64 4, ptr %6) #6
  %13 = load i32, ptr %3, align 4, !tbaa !15
  %14 = icmp uge i32 %13, 12
  br i1 %14, label %15, label %16

15:                                               ; preds = %12
  br label %20

16:                                               ; preds = %12
  %17 = load i32, ptr %3, align 4, !tbaa !15
  %18 = lshr i32 %17, 2
  %19 = add i32 %18, 1
  br label %20

20:                                               ; preds = %16, %15
  %21 = phi i32 [ 4, %15 ], [ %19, %16 ]
  store i32 %21, ptr %6, align 4, !tbaa !15
  br label %22

22:                                               ; preds = %31, %20
  %23 = load i32, ptr %3, align 4, !tbaa !15
  %24 = trunc i32 %23 to i8
  %25 = load ptr, ptr %2, align 8, !tbaa !4
  %26 = getelementptr inbounds nuw %struct.CPpmd7, ptr %25, i32 0, i32 19
  %27 = load i32, ptr %4, align 4, !tbaa !15
  %28 = add i32 %27, 1
  store i32 %28, ptr %4, align 4, !tbaa !15
  %29 = zext i32 %27 to i64
  %30 = getelementptr inbounds nuw [128 x i8], ptr %26, i64 0, i64 %29
  store i8 %24, ptr %30, align 1, !tbaa !16
  br label %31

31:                                               ; preds = %22
  %32 = load i32, ptr %6, align 4, !tbaa !15
  %33 = add i32 %32, -1
  store i32 %33, ptr %6, align 4, !tbaa !15
  %34 = icmp ne i32 %33, 0
  br i1 %34, label %22, label %35, !llvm.loop !17

35:                                               ; preds = %31
  %36 = load i32, ptr %4, align 4, !tbaa !15
  %37 = trunc i32 %36 to i8
  %38 = load ptr, ptr %2, align 8, !tbaa !4
  %39 = getelementptr inbounds nuw %struct.CPpmd7, ptr %38, i32 0, i32 18
  %40 = load i32, ptr %3, align 4, !tbaa !15
  %41 = zext i32 %40 to i64
  %42 = getelementptr inbounds nuw [38 x i8], ptr %39, i64 0, i64 %41
  store i8 %37, ptr %42, align 1, !tbaa !16
  call void @llvm.lifetime.end.p0(i64 4, ptr %6) #6
  br label %43

43:                                               ; preds = %35
  %44 = load i32, ptr %3, align 4, !tbaa !15
  %45 = add i32 %44, 1
  store i32 %45, ptr %3, align 4, !tbaa !15
  br label %9, !llvm.loop !19

46:                                               ; preds = %9
  %47 = load ptr, ptr %2, align 8, !tbaa !4
  %48 = getelementptr inbounds nuw %struct.CPpmd7, ptr %47, i32 0, i32 22
  %49 = getelementptr inbounds [256 x i8], ptr %48, i64 0, i64 0
  store i8 0, ptr %49, align 4, !tbaa !16
  %50 = load ptr, ptr %2, align 8, !tbaa !4
  %51 = getelementptr inbounds nuw %struct.CPpmd7, ptr %50, i32 0, i32 22
  %52 = getelementptr inbounds [256 x i8], ptr %51, i64 0, i64 1
  store i8 2, ptr %52, align 1, !tbaa !16
  %53 = load ptr, ptr %2, align 8, !tbaa !4
  %54 = getelementptr inbounds nuw %struct.CPpmd7, ptr %53, i32 0, i32 22
  %55 = getelementptr inbounds [256 x i8], ptr %54, i64 0, i64 0
  %56 = getelementptr inbounds i8, ptr %55, i64 2
  call void @llvm.memset.p0.i64(ptr align 1 %56, i8 4, i64 9, i1 false)
  %57 = load ptr, ptr %2, align 8, !tbaa !4
  %58 = getelementptr inbounds nuw %struct.CPpmd7, ptr %57, i32 0, i32 22
  %59 = getelementptr inbounds [256 x i8], ptr %58, i64 0, i64 0
  %60 = getelementptr inbounds i8, ptr %59, i64 11
  call void @llvm.memset.p0.i64(ptr align 1 %60, i8 6, i64 245, i1 false)
  store i32 0, ptr %3, align 4, !tbaa !15
  br label %61

61:                                               ; preds = %72, %46
  %62 = load i32, ptr %3, align 4, !tbaa !15
  %63 = icmp ult i32 %62, 3
  br i1 %63, label %64, label %75

64:                                               ; preds = %61
  %65 = load i32, ptr %3, align 4, !tbaa !15
  %66 = trunc i32 %65 to i8
  %67 = load ptr, ptr %2, align 8, !tbaa !4
  %68 = getelementptr inbounds nuw %struct.CPpmd7, ptr %67, i32 0, i32 21
  %69 = load i32, ptr %3, align 4, !tbaa !15
  %70 = zext i32 %69 to i64
  %71 = getelementptr inbounds nuw [256 x i8], ptr %68, i64 0, i64 %70
  store i8 %66, ptr %71, align 1, !tbaa !16
  br label %72

72:                                               ; preds = %64
  %73 = load i32, ptr %3, align 4, !tbaa !15
  %74 = add i32 %73, 1
  store i32 %74, ptr %3, align 4, !tbaa !15
  br label %61, !llvm.loop !20

75:                                               ; preds = %61
  %76 = load i32, ptr %3, align 4, !tbaa !15
  store i32 %76, ptr %5, align 4, !tbaa !15
  store i32 1, ptr %4, align 4, !tbaa !15
  br label %77

77:                                               ; preds = %96, %75
  %78 = load i32, ptr %3, align 4, !tbaa !15
  %79 = icmp ult i32 %78, 256
  br i1 %79, label %80, label %99

80:                                               ; preds = %77
  %81 = load i32, ptr %5, align 4, !tbaa !15
  %82 = trunc i32 %81 to i8
  %83 = load ptr, ptr %2, align 8, !tbaa !4
  %84 = getelementptr inbounds nuw %struct.CPpmd7, ptr %83, i32 0, i32 21
  %85 = load i32, ptr %3, align 4, !tbaa !15
  %86 = zext i32 %85 to i64
  %87 = getelementptr inbounds nuw [256 x i8], ptr %84, i64 0, i64 %86
  store i8 %82, ptr %87, align 1, !tbaa !16
  %88 = load i32, ptr %4, align 4, !tbaa !15
  %89 = add i32 %88, -1
  store i32 %89, ptr %4, align 4, !tbaa !15
  %90 = icmp eq i32 %89, 0
  br i1 %90, label %91, label %95

91:                                               ; preds = %80
  %92 = load i32, ptr %5, align 4, !tbaa !15
  %93 = add i32 %92, 1
  store i32 %93, ptr %5, align 4, !tbaa !15
  %94 = sub i32 %93, 2
  store i32 %94, ptr %4, align 4, !tbaa !15
  br label %95

95:                                               ; preds = %91, %80
  br label %96

96:                                               ; preds = %95
  %97 = load i32, ptr %3, align 4, !tbaa !15
  %98 = add i32 %97, 1
  store i32 %98, ptr %3, align 4, !tbaa !15
  br label %77, !llvm.loop !21

99:                                               ; preds = %77
  %100 = load ptr, ptr %2, align 8, !tbaa !4
  %101 = getelementptr inbounds nuw %struct.CPpmd7, ptr %100, i32 0, i32 23
  %102 = getelementptr inbounds [256 x i8], ptr %101, i64 0, i64 0
  call void @llvm.memset.p0.i64(ptr align 4 %102, i8 0, i64 64, i1 false)
  %103 = load ptr, ptr %2, align 8, !tbaa !4
  %104 = getelementptr inbounds nuw %struct.CPpmd7, ptr %103, i32 0, i32 23
  %105 = getelementptr inbounds [256 x i8], ptr %104, i64 0, i64 0
  %106 = getelementptr inbounds i8, ptr %105, i64 64
  call void @llvm.memset.p0.i64(ptr align 1 %106, i8 8, i64 192, i1 false)
  call void @llvm.lifetime.end.p0(i64 4, ptr %5) #6
  call void @llvm.lifetime.end.p0(i64 4, ptr %4) #6
  call void @llvm.lifetime.end.p0(i64 4, ptr %3) #6
  ret void
}