; Function Attrs: nofree norecurse nosync nounwind memory(argmem: write) uwtable
define internal void @Ppmd7_Construct(ptr noundef writeonly captures(none) initializes((64, 72)) %0) #0 {
  %2 = getelementptr inbounds nuw i8, ptr %0, i64 64
  store ptr null, ptr %2, align 8, !tbaa !4
  %3 = getelementptr inbounds nuw i8, ptr %0, i64 146
  %4 = getelementptr inbounds nuw i8, ptr %0, i64 108
  br label %5

5:                                                ; preds = %1, %17
  %indvars.iv = phi i64 [ 0, %1 ], [ %indvars.iv.next, %17 ]
  %.03138 = phi i32 [ 0, %1 ], [ %13, %17 ]
  %6 = icmp samesign ugt i64 %indvars.iv, 11
  %7 = trunc nuw nsw i64 %indvars.iv to i32
  %8 = lshr i32 %7, 2
  %9 = add nuw nsw i32 %8, 1
  %10 = select i1 %6, i32 4, i32 %9
  %11 = trunc i64 %indvars.iv to i8
  br label %12

12:                                               ; preds = %12, %5
  %.132 = phi i32 [ %.03138, %5 ], [ %13, %12 ]
  %.0 = phi i32 [ %10, %5 ], [ %16, %12 ]
  %13 = add i32 %.132, 1
  %14 = zext i32 %.132 to i64
  %15 = getelementptr inbounds nuw [128 x i8], ptr %3, i64 0, i64 %14
  store i8 %11, ptr %15, align 1, !tbaa !14
  %16 = add i32 %.0, -1
  %.not = icmp eq i32 %16, 0
  br i1 %.not, label %17, label %12, !llvm.loop !15

17:                                               ; preds = %12
  %18 = trunc i32 %13 to i8
  %19 = getelementptr inbounds nuw [38 x i8], ptr %4, i64 0, i64 %indvars.iv
  store i8 %18, ptr %19, align 1, !tbaa !14
  %indvars.iv.next = add nuw nsw i64 %indvars.iv, 1
  %exitcond.not = icmp eq i64 %indvars.iv.next, 38
  br i1 %exitcond.not, label %20, label %5, !llvm.loop !17

20:                                               ; preds = %17
  %21 = getelementptr inbounds nuw i8, ptr %0, i64 684
  store i8 0, ptr %21, align 4, !tbaa !14
  %22 = getelementptr inbounds nuw i8, ptr %0, i64 685
  store i8 2, ptr %22, align 1, !tbaa !14
  %23 = getelementptr inbounds nuw i8, ptr %0, i64 686
  tail call void @llvm.memset.p0.i64(ptr noundef nonnull align 1 dereferenceable(9) %23, i8 4, i64 9, i1 false)
  %24 = getelementptr inbounds nuw i8, ptr %0, i64 695
  tail call void @llvm.memset.p0.i64(ptr noundef nonnull align 1 dereferenceable(245) %24, i8 6, i64 245, i1 false)
  %25 = getelementptr inbounds nuw i8, ptr %0, i64 428
  br label %26

26:                                               ; preds = %20, %26
  %indvars.iv45 = phi i64 [ 0, %20 ], [ %indvars.iv.next46, %26 ]
  %27 = trunc i64 %indvars.iv45 to i8
  %28 = getelementptr inbounds nuw [256 x i8], ptr %25, i64 0, i64 %indvars.iv45
  store i8 %27, ptr %28, align 1, !tbaa !14
  %indvars.iv.next46 = add nuw nsw i64 %indvars.iv45, 1
  %exitcond48.not = icmp eq i64 %indvars.iv.next46, 3
  br i1 %exitcond48.not, label %.lr.ph, label %26, !llvm.loop !18

.lr.ph:                                           ; preds = %26, %.lr.ph
  %indvars.iv49 = phi i64 [ %indvars.iv.next50, %.lr.ph ], [ 3, %26 ]
  %.03042 = phi i32 [ %.1, %.lr.ph ], [ 3, %26 ]
  %.241 = phi i32 [ %.3, %.lr.ph ], [ 1, %26 ]
  %29 = trunc i32 %.03042 to i8
  %30 = getelementptr inbounds nuw [256 x i8], ptr %25, i64 0, i64 %indvars.iv49
  store i8 %29, ptr %30, align 1, !tbaa !14
  %31 = add i32 %.241, -1
  %32 = icmp eq i32 %31, 0
  %33 = add i32 %.03042, -1
  %.3 = select i1 %32, i32 %33, i32 %31
  %34 = zext i1 %32 to i32
  %.1 = add i32 %.03042, %34
  %indvars.iv.next50 = add nuw nsw i64 %indvars.iv49, 1
  %exitcond52.not = icmp eq i64 %indvars.iv.next50, 256
  br i1 %exitcond52.not, label %._crit_edge, label %.lr.ph, !llvm.loop !19

._crit_edge:                                      ; preds = %.lr.ph
  %35 = getelementptr inbounds nuw i8, ptr %0, i64 940
  tail call void @llvm.memset.p0.i64(ptr noundef nonnull align 4 dereferenceable(64) %35, i8 0, i64 64, i1 false)
  %36 = getelementptr inbounds nuw i8, ptr %0, i64 1004
  tail call void @llvm.memset.p0.i64(ptr noundef nonnull align 1 dereferenceable(192) %36, i8 8, i64 192, i1 false)
  ret void
}